target datalayout = "e-m:e-p270:32:32-p271:32:32-p272:64:64-i64:64-i128:128-f80:128-n8:16:32:64-S128"
target triple = "x86_64-unknown-linux-gnu"

%struct.PCIDevice = type { %struct.DeviceState, i8, i8, ptr, ptr, ptr, ptr, ptr, i32, %struct.PCIReqIDCache, [64 x i8], [7 x %struct.PCIIORegion], %struct.AddressSpace, %struct.MemoryRegion, %struct.MemoryRegion, ptr, ptr, [3 x ptr], i8, i8, i32, i8, i32, ptr, ptr, ptr, ptr, ptr, ptr, %struct.MemoryRegion, %struct.MemoryRegion, %struct.MemoryRegion, ptr, i8, i32, i8, %struct.PCIExpressDevice, ptr, ptr, i32, i8, %struct.MemoryRegion, i32, ptr, ptr, ptr, ptr, ptr, i32 }
%struct.DeviceState = type { %struct.Object, ptr, ptr, i8, i8, i64, ptr, i32, i8, ptr, %struct.NamedGPIOListHead, %struct.NamedClockListHead, %struct.BusStateHead, i32, i32, i32, %struct.ResettableState, ptr, %struct.MemReentrancyGuard }
%struct.Object = type { ptr, ptr, ptr, i32, ptr }
%struct.NamedGPIOListHead = type { ptr }
%struct.NamedClockListHead = type { ptr }
%struct.BusStateHead = type { ptr }
%struct.ResettableState = type { i32, i8, i8 }
%struct.MemReentrancyGuard = type { i8 }
%struct.PCIReqIDCache = type { ptr, i32 }
%struct.PCIIORegion = type { i64, i64, i8, ptr, ptr }
%struct.AddressSpace = type { %struct.rcu_head, ptr, ptr, ptr, i32, i32, ptr, %union.anon, %union.anon.0 }
%struct.rcu_head = type { ptr, ptr }
%union.anon = type { %struct.QTailQLink }
%struct.QTailQLink = type { ptr, ptr }
%union.anon.0 = type { %struct.QTailQLink }
%struct.PCIExpressDevice = type { i8, i8, i8, i16, %struct.PCIEAERLog, i16, i16, i16, %struct.PCIESriovPF, %struct.PCIESriovVF }
%struct.PCIEAERLog = type { i16, i16, ptr }
%struct.PCIESriovPF = type { i16, [7 x i8], ptr, ptr }
%struct.PCIESriovVF = type { ptr, i16 }
%struct.MemoryRegion = type { %struct.Object, i8, i8, i8, i8, i8, i8, i8, i8, i8, i8, ptr, ptr, ptr, ptr, ptr, ptr, i32, i128, i64, ptr, i64, i8, i8, i8, i8, i8, ptr, i64, i32, %union.anon.1, %union.anon.2, %union.anon.3, ptr, i32, ptr, ptr, i8 }
%union.anon.1 = type { %struct.QTailQLink }
%union.anon.2 = type { %struct.QTailQLink }
%union.anon.3 = type { %struct.QTailQLink }

; Function Attrs: nounwind sspstrong uwtable
define dso_local i32 @msix_present(ptr noundef %dev) #0 {
entry:
  %dev.addr = alloca ptr, align 8
  store ptr %dev, ptr %dev.addr, align 8
  %0 = load ptr, ptr %dev.addr, align 8
  %cap_present = getelementptr inbounds %struct.PCIDevice, ptr %0, i32 0, i32 20
  %1 = load i32, ptr %cap_present, align 4
  %and = and i32 %1, 2
  ret i32 %and
}

; Function Attrs: nounwind sspstrong uwtable
define dso_local void @msix_save(ptr noundef %dev, ptr noundef %f) #0 {
entry:
  %dev.addr = alloca ptr, align 8
  %f.addr = alloca ptr, align 8
  %n = alloca i32, align 4
  store ptr %dev, ptr %dev.addr, align 8
  store ptr %f, ptr %f.addr, align 8
  %0 = load ptr, ptr %dev.addr, align 8
  %msix_entries_nr = getelementptr inbounds %struct.PCIDevice, ptr %0, i32 0, i32 22
  %1 = load i32, ptr %msix_entries_nr, align 4
  store i32 %1, ptr %n, align 4
  %2 = load ptr, ptr %dev.addr, align 8
  %call = call i32 @msix_present(ptr noundef %2)
  %tobool = icmp ne i32 %call, 0
  br i1 %tobool, label %if.end, label %if.then

if.then:                                          ; preds = %entry
  br label %return

if.end:                                           ; preds = %entry
  %3 = load ptr, ptr %f.addr, align 8
  %4 = load ptr, ptr %dev.addr, align 8
  %msix_table = getelementptr inbounds %struct.PCIDevice, ptr %4, i32 0, i32 23
  %5 = load ptr, ptr %msix_table, align 8
  %6 = load i32, ptr %n, align 4
  %mul = mul i32 %6, 16
  %conv = zext i32 %mul to i64
  call void @qemu_put_buffer(ptr noundef %3, ptr noundef %5, i64 noundef %conv)
  %7 = load ptr, ptr %f.addr, align 8
  %8 = load ptr, ptr %dev.addr, align 8
  %msix_pba = getelementptr inbounds %struct.PCIDevice, ptr %8, i32 0, i32 24
  %9 = load ptr, ptr %msix_pba, align 16
  %10 = load i32, ptr %n, align 4
  %add = add i32 %10, 8
  %sub = sub i32 %add, 1
  %div = udiv i32 %sub, 8
  %conv1 = zext i32 %div to i64
  call void @qemu_put_buffer(ptr noundef %7, ptr noundef %9, i64 noundef %conv1)
  br label %return

return:                                           ; preds = %if.end, %if.then
  ret void
}