; Function Attrs: nounwind sspstrong uwtable
define dso_local void @msix_save(ptr noundef readonly captures(none) %dev, ptr noundef %f) local_unnamed_addr #0 {
entry:
  %cap_present.i = getelementptr inbounds nuw i8, ptr %dev, i64 1260
  %0 = load i32, ptr %cap_present.i, align 4
  %and.i = and i32 %0, 2
  %tobool.not = icmp eq i32 %and.i, 0
  br i1 %tobool.not, label %return, label %if.end

if.end:                                           ; preds = %entry
  %msix_entries_nr = getelementptr inbounds nuw i8, ptr %dev, i64 1268
  %1 = load i32, ptr %msix_entries_nr, align 4
  %msix_table = getelementptr inbounds nuw i8, ptr %dev, i64 1272
  %2 = load ptr, ptr %msix_table, align 8
  %mul = shl i32 %1, 4
  %conv = zext i32 %mul to i64
  tail call void @qemu_put_buffer(ptr noundef %f, ptr noundef %2, i64 noundef %conv) #14
  %msix_pba = getelementptr inbounds nuw i8, ptr %dev, i64 1280
  %3 = load ptr, ptr %msix_pba, align 16
  %sub = add i32 %1, 7
  %div6 = lshr i32 %sub, 3
  %conv1 = zext nneg i32 %div6 to i64
  tail call void @qemu_put_buffer(ptr noundef %f, ptr noundef %3, i64 noundef %conv1) #14
  br label %return

return:                                           ; preds = %entry, %if.end
  ret void
}